target datalayout = "e-m:e-p270:32:32-p271:32:32-p272:64:64-i64:64-i128:128-f80:128-n8:16:32:64-S128"
target triple = "x86_64-pc-linux-gnu"

%struct.crypto_hash_sha512_state = type { [8 x i64], [2 x i64], [128 x i8] }

; Function Attrs: nounwind ssp uwtable
define dso_local i32 @crypto_hash_sha512_update(ptr noundef nonnull %0, ptr noundef %1, i64 noundef %2) #0 {
  %4 = alloca i32, align 4
  %5 = alloca ptr, align 8
  %6 = alloca ptr, align 8
  %7 = alloca i64, align 8
  %8 = alloca [88 x i64], align 16
  %9 = alloca [2 x i64], align 16
  %10 = alloca i64, align 8
  %11 = alloca i64, align 8
  %12 = alloca i32, align 4
  store ptr %0, ptr %5, align 8
  store ptr %1, ptr %6, align 8
  store i64 %2, ptr %7, align 8
  call void @llvm.lifetime.start.p0(i64 704, ptr %8) #7
  call void @llvm.lifetime.start.p0(i64 16, ptr %9) #7
  call void @llvm.lifetime.start.p0(i64 8, ptr %10) #7
  call void @llvm.lifetime.start.p0(i64 8, ptr %11) #7
  %13 = load i64, ptr %7, align 8
  %14 = icmp ule i64 %13, 0
  br i1 %14, label %15, label %16

15:                                               ; preds = %3
  store i32 0, ptr %4, align 4
  store i32 1, ptr %12, align 4
  br label %149

16:                                               ; preds = %3
  fence acquire
  %17 = load ptr, ptr %5, align 8
  %18 = getelementptr inbounds nuw %struct.crypto_hash_sha512_state, ptr %17, i32 0, i32 1
  %19 = getelementptr [2 x i64], ptr %18, i64 0, i64 1
  %20 = load i64, ptr %19, align 8
  %21 = lshr i64 %20, 3
  %22 = and i64 %21, 127
  store i64 %22, ptr %11, align 8
  %23 = load i64, ptr %7, align 8
  %24 = shl i64 %23, 3
  %25 = getelementptr [2 x i64], ptr %9, i64 0, i64 1
  store i64 %24, ptr %25, align 8
  %26 = load i64, ptr %7, align 8
  %27 = lshr i64 %26, 61
  %28 = getelementptr [2 x i64], ptr %9, i64 0, i64 0
  store i64 %27, ptr %28, align 16
  %29 = getelementptr [2 x i64], ptr %9, i64 0, i64 1
  %30 = load i64, ptr %29, align 8
  %31 = load ptr, ptr %5, align 8
  %32 = getelementptr inbounds nuw %struct.crypto_hash_sha512_state, ptr %31, i32 0, i32 1
  %33 = getelementptr [2 x i64], ptr %32, i64 0, i64 1
  %34 = load i64, ptr %33, align 8
  %35 = add i64 %34, %30
  store i64 %35, ptr %33, align 8
  %36 = getelementptr [2 x i64], ptr %9, i64 0, i64 1
  %37 = load i64, ptr %36, align 8
  %38 = icmp ult i64 %35, %37
  br i1 %38, label %39, label %45

39:                                               ; preds = %16
  %40 = load ptr, ptr %5, align 8
  %41 = getelementptr inbounds nuw %struct.crypto_hash_sha512_state, ptr %40, i32 0, i32 1
  %42 = getelementptr [2 x i64], ptr %41, i64 0, i64 0
  %43 = load i64, ptr %42, align 8
  %44 = add i64 %43, 1
  store i64 %44, ptr %42, align 8
  br label %45

45:                                               ; preds = %39, %16
  %46 = getelementptr [2 x i64], ptr %9, i64 0, i64 0
  %47 = load i64, ptr %46, align 16
  %48 = load ptr, ptr %5, align 8
  %49 = getelementptr inbounds nuw %struct.crypto_hash_sha512_state, ptr %48, i32 0, i32 1
  %50 = getelementptr [2 x i64], ptr %49, i64 0, i64 0
  %51 = load i64, ptr %50, align 8
  %52 = add i64 %51, %47
  store i64 %52, ptr %50, align 8
  %53 = load i64, ptr %7, align 8
  %54 = load i64, ptr %11, align 8
  %55 = sub i64 128, %54
  %56 = icmp ult i64 %53, %55
  br i1 %56, label %57, label %77

57:                                               ; preds = %45
  store i64 0, ptr %10, align 8
  br label %58

58:                                               ; preds = %73, %57
  %59 = load i64, ptr %10, align 8
  %60 = load i64, ptr %7, align 8
  %61 = icmp ult i64 %59, %60
  br i1 %61, label %62, label %76

62:                                               ; preds = %58
  %63 = load ptr, ptr %6, align 8
  %64 = load i64, ptr %10, align 8
  %65 = getelementptr i8, ptr %63, i64 %64
  %66 = load i8, ptr %65, align 1
  %67 = load ptr, ptr %5, align 8
  %68 = getelementptr inbounds nuw %struct.crypto_hash_sha512_state, ptr %67, i32 0, i32 2
  %69 = load i64, ptr %11, align 8
  %70 = load i64, ptr %10, align 8
  %71 = add i64 %69, %70
  %72 = getelementptr [128 x i8], ptr %68, i64 0, i64 %71
  store i8 %66, ptr %72, align 1
  br label %73

73:                                               ; preds = %62
  %74 = load i64, ptr %10, align 8
  %75 = add i64 %74, 1
  store i64 %75, ptr %10, align 8
  br label %58, !llvm.loop !4

76:                                               ; preds = %58
  store i32 0, ptr %4, align 4
  store i32 1, ptr %12, align 4
  br label %149

77:                                               ; preds = %45
  store i64 0, ptr %10, align 8
  br label %78

78:                                               ; preds = %94, %77
  %79 = load i64, ptr %10, align 8
  %80 = load i64, ptr %11, align 8
  %81 = sub i64 128, %80
  %82 = icmp ult i64 %79, %81
  br i1 %82, label %83, label %97

83:                                               ; preds = %78
  %84 = load ptr, ptr %6, align 8
  %85 = load i64, ptr %10, align 8
  %86 = getelementptr i8, ptr %84, i64 %85
  %87 = load i8, ptr %86, align 1
  %88 = load ptr, ptr %5, align 8
  %89 = getelementptr inbounds nuw %struct.crypto_hash_sha512_state, ptr %88, i32 0, i32 2
  %90 = load i64, ptr %11, align 8
  %91 = load i64, ptr %10, align 8
  %92 = add i64 %90, %91
  %93 = getelementptr [128 x i8], ptr %89, i64 0, i64 %92
  store i8 %87, ptr %93, align 1
  br label %94

94:                                               ; preds = %83
  %95 = load i64, ptr %10, align 8
  %96 = add i64 %95, 1
  store i64 %96, ptr %10, align 8
  br label %78, !llvm.loop !6

97:                                               ; preds = %78
  %98 = load ptr, ptr %5, align 8
  %99 = getelementptr inbounds nuw %struct.crypto_hash_sha512_state, ptr %98, i32 0, i32 0
  %100 = getelementptr inbounds [8 x i64], ptr %99, i64 0, i64 0
  %101 = load ptr, ptr %5, align 8
  %102 = getelementptr inbounds nuw %struct.crypto_hash_sha512_state, ptr %101, i32 0, i32 2
  %103 = getelementptr inbounds [128 x i8], ptr %102, i64 0, i64 0
  %104 = getelementptr [88 x i64], ptr %8, i64 0, i64 0
  %105 = getelementptr [88 x i64], ptr %8, i64 0, i64 80
  call void @SHA512_Transform(ptr noundef %100, ptr noundef %103, ptr noundef %104, ptr noundef %105)
  %106 = load i64, ptr %11, align 8
  %107 = sub i64 128, %106
  %108 = load ptr, ptr %6, align 8
  %109 = getelementptr i8, ptr %108, i64 %107
  store ptr %109, ptr %6, align 8
  %110 = load i64, ptr %11, align 8
  %111 = sub i64 128, %110
  %112 = load i64, ptr %7, align 8
  %113 = sub i64 %112, %111
  store i64 %113, ptr %7, align 8
  br label %114

114:                                              ; preds = %117, %97
  %115 = load i64, ptr %7, align 8
  %116 = icmp uge i64 %115, 128
  br i1 %116, label %117, label %128

117:                                              ; preds = %114
  %118 = load ptr, ptr %5, align 8
  %119 = getelementptr inbounds nuw %struct.crypto_hash_sha512_state, ptr %118, i32 0, i32 0
  %120 = getelementptr inbounds [8 x i64], ptr %119, i64 0, i64 0
  %121 = load ptr, ptr %6, align 8
  %122 = getelementptr [88 x i64], ptr %8, i64 0, i64 0
  %123 = getelementptr [88 x i64], ptr %8, i64 0, i64 80
  call void @SHA512_Transform(ptr noundef %120, ptr noundef %121, ptr noundef %122, ptr noundef %123)
  %124 = load ptr, ptr %6, align 8
  %125 = getelementptr i8, ptr %124, i64 128
  store ptr %125, ptr %6, align 8
  %126 = load i64, ptr %7, align 8
  %127 = sub i64 %126, 128
  store i64 %127, ptr %7, align 8
  br label %114, !llvm.loop !7

128:                                              ; preds = %114
  %129 = load i64, ptr %7, align 8
  %130 = and i64 %129, 127
  store i64 %130, ptr %7, align 8
  store i64 0, ptr %10, align 8
  br label %131

131:                                              ; preds = %144, %128
  %132 = load i64, ptr %10, align 8
  %133 = load i64, ptr %7, align 8
  %134 = icmp ult i64 %132, %133
  br i1 %134, label %135, label %147

135:                                              ; preds = %131
  %136 = load ptr, ptr %6, align 8
  %137 = load i64, ptr %10, align 8
  %138 = getelementptr i8, ptr %136, i64 %137
  %139 = load i8, ptr %138, align 1
  %140 = load ptr, ptr %5, align 8
  %141 = getelementptr inbounds nuw %struct.crypto_hash_sha512_state, ptr %140, i32 0, i32 2
  %142 = load i64, ptr %10, align 8
  %143 = getelementptr [128 x i8], ptr %141, i64 0, i64 %142
  store i8 %139, ptr %143, align 1
  br label %144

144:                                              ; preds = %135
  %145 = load i64, ptr %10, align 8
  %146 = add i64 %145, 1
  store i64 %146, ptr %10, align 8
  br label %131, !llvm.loop !8

147:                                              ; preds = %131
  %148 = getelementptr inbounds [88 x i64], ptr %8, i64 0, i64 0
  call void @sodium_memzero(ptr noundef %148, i64 noundef 704)
  store i32 0, ptr %4, align 4
  store i32 1, ptr %12, align 4
  br label %149

149:                                              ; preds = %147, %76, %15
  call void @llvm.lifetime.end.p0(i64 8, ptr %11) #7
  call void @llvm.lifetime.end.p0(i64 8, ptr %10) #7
  call void @llvm.lifetime.end.p0(i64 16, ptr %9) #7
  call void @llvm.lifetime.end.p0(i64 704, ptr %8) #7
  %150 = load i32, ptr %4, align 4
  ret i32 %150
}