; Function Attrs: nounwind ssp uwtable
define dso_local noundef i32 @crypto_hash_sha512_update(ptr noundef nonnull captures(none) %0, ptr noundef readonly captures(none) %1, i64 noundef %2) local_unnamed_addr #1 {
  %4 = alloca [88 x i64], align 16
  call void @llvm.lifetime.start.p0(i64 704, ptr nonnull %4) #7
  %5 = icmp eq i64 %2, 0
  br i1 %5, label %.loopexit, label %6

6:                                                ; preds = %3
  fence acquire
  %7 = getelementptr inbounds nuw i8, ptr %0, i64 64
  %8 = getelementptr i8, ptr %0, i64 72
  %9 = load i64, ptr %8, align 8
  %10 = lshr i64 %9, 3
  %11 = and i64 %10, 127
  %12 = shl i64 %2, 3
  %13 = lshr i64 %2, 61
  %14 = add i64 %9, %12
  store i64 %14, ptr %8, align 8
  %15 = icmp ult i64 %14, %12
  %.pre = load i64, ptr %7, align 8
  %16 = zext i1 %15 to i64
  %spec.select = add i64 %.pre, %16
  %17 = add i64 %spec.select, %13
  store i64 %17, ptr %7, align 8
  %18 = sub nuw nsw i64 128, %11
  %19 = icmp ult i64 %2, %18
  %20 = getelementptr inbounds nuw i8, ptr %0, i64 80
  br i1 %19, label %.preheader, label %.preheader50

.preheader:                                       ; preds = %6, %.preheader
  %.04557 = phi i64 [ %25, %.preheader ], [ 0, %6 ]
  %21 = getelementptr i8, ptr %1, i64 %.04557
  %22 = load i8, ptr %21, align 1
  %23 = add nuw nsw i64 %.04557, %11
  %24 = getelementptr [128 x i8], ptr %20, i64 0, i64 %23
  store i8 %22, ptr %24, align 1
  %25 = add nuw nsw i64 %.04557, 1
  %exitcond60.not = icmp eq i64 %25, %2
  br i1 %exitcond60.not, label %.loopexit, label %.preheader, !llvm.loop !4

.preheader50:                                     ; preds = %6, %.preheader50
  %.151 = phi i64 [ %30, %.preheader50 ], [ 0, %6 ]
  %26 = getelementptr i8, ptr %1, i64 %.151
  %27 = load i8, ptr %26, align 1
  %28 = add nuw nsw i64 %.151, %11
  %29 = getelementptr [128 x i8], ptr %20, i64 0, i64 %28
  store i8 %27, ptr %29, align 1
  %30 = add nuw nsw i64 %.151, 1
  %exitcond.not = icmp eq i64 %30, %18
  br i1 %exitcond.not, label %31, label %.preheader50, !llvm.loop !6

31:                                               ; preds = %.preheader50
  %32 = getelementptr inbounds nuw i8, ptr %4, i64 640
  call fastcc void @SHA512_Transform(ptr noundef %0, ptr noundef nonnull %20, ptr noundef %4, ptr noundef nonnull %32)
  %33 = getelementptr i8, ptr %1, i64 %18
  %34 = sub i64 %2, %18
  %35 = icmp ugt i64 %34, 127
  br i1 %35, label %.lr.ph, label %.preheader49

.preheader49:                                     ; preds = %.lr.ph, %31
  %.047.lcssa = phi i64 [ %34, %31 ], [ %37, %.lr.ph ]
  %.046.lcssa = phi ptr [ %33, %31 ], [ %36, %.lr.ph ]
  %.not = icmp eq i64 %.047.lcssa, 0
  br i1 %.not, label %._crit_edge, label %.lr.ph56

.lr.ph:                                           ; preds = %31, %.lr.ph
  %.04653 = phi ptr [ %36, %.lr.ph ], [ %33, %31 ]
  %.04752 = phi i64 [ %37, %.lr.ph ], [ %34, %31 ]
  call fastcc void @SHA512_Transform(ptr noundef %0, ptr noundef %.04653, ptr noundef %4, ptr noundef nonnull %32)
  %36 = getelementptr i8, ptr %.04653, i64 128
  %37 = add i64 %.04752, -128
  %38 = icmp ugt i64 %37, 127
  br i1 %38, label %.lr.ph, label %.preheader49, !llvm.loop !7

.lr.ph56:                                         ; preds = %.preheader49, %.lr.ph56
  %.255 = phi i64 [ %42, %.lr.ph56 ], [ 0, %.preheader49 ]
  %39 = getelementptr i8, ptr %.046.lcssa, i64 %.255
  %40 = load i8, ptr %39, align 1
  %41 = getelementptr [128 x i8], ptr %20, i64 0, i64 %.255
  store i8 %40, ptr %41, align 1
  %42 = add nuw nsw i64 %.255, 1
  %exitcond59.not = icmp eq i64 %42, %.047.lcssa
  br i1 %exitcond59.not, label %._crit_edge, label %.lr.ph56, !llvm.loop !8

._crit_edge:                                      ; preds = %.lr.ph56, %.preheader49
  call void @sodium_memzero(ptr noundef nonnull %4, i64 noundef 704) #7
  br label %.loopexit

.loopexit:                                        ; preds = %.preheader, %3, %._crit_edge
  call void @llvm.lifetime.end.p0(i64 704, ptr nonnull %4) #7
  ret i32 0
}